target datalayout = "e-m:e-p270:32:32-p271:32:32-p272:64:64-i64:64-i128:128-f80:128-n8:16:32:64-S128"
target triple = "x86_64-pc-linux-gnu"

%struct.mpd_t = type { i8, i64, i64, i64, i64, ptr }

; Function Attrs: alwaysinline nounwind uwtable
define hidden i32 @mpd_isnegative(ptr noundef %0) #1 {
  %2 = alloca ptr, align 8
  store ptr %0, ptr %2, align 8, !tbaa !7
  %3 = load ptr, ptr %2, align 8, !tbaa !7
  %4 = getelementptr inbounds nuw %struct.mpd_t, ptr %3, i32 0, i32 0
  %5 = load i8, ptr %4, align 8, !tbaa !25
  %6 = zext i8 %5 to i32
  %7 = and i32 %6, 1
  ret i32 %7
}

; Function Attrs: nounwind uwtable
define hidden i64 @mpd_qabs_uint(ptr noundef %0, ptr noundef %1) #0 {
  %3 = alloca ptr, align 8
  %4 = alloca ptr, align 8
  store ptr %0, ptr %3, align 8, !tbaa !7
  store ptr %1, ptr %4, align 8, !tbaa !29
  %5 = load ptr, ptr %3, align 8, !tbaa !7
  %6 = load ptr, ptr %4, align 8, !tbaa !29
  %7 = call i64 @_mpd_qget_uint(i32 noundef 0, ptr noundef %5, ptr noundef %6)
  ret i64 %7
}

; Function Attrs: nounwind uwtable
define hidden i64 @mpd_qget_ssize(ptr noundef %0, ptr noundef %1) #0 {
  %3 = alloca i64, align 8
  %4 = alloca ptr, align 8
  %5 = alloca ptr, align 8
  %6 = alloca i32, align 4
  %7 = alloca i64, align 8
  %8 = alloca i32, align 4
  %9 = alloca i32, align 4
  store ptr %0, ptr %4, align 8, !tbaa !7
  store ptr %1, ptr %5, align 8, !tbaa !29
  call void @llvm.lifetime.start.p0(i64 4, ptr %6) #10
  store i32 0, ptr %6, align 4, !tbaa !23
  call void @llvm.lifetime.start.p0(i64 8, ptr %7) #10
  call void @llvm.lifetime.start.p0(i64 4, ptr %8) #10
  %10 = load ptr, ptr %4, align 8, !tbaa !7
  %11 = call i64 @mpd_qabs_uint(ptr noundef %10, ptr noundef %6)
  store i64 %11, ptr %7, align 8, !tbaa !3
  %12 = load i32, ptr %6, align 4, !tbaa !23
  %13 = and i32 %12, 256
  %14 = icmp ne i32 %13, 0
  br i1 %14, label %15, label %20

15:                                               ; preds = %2
  %16 = load i32, ptr %6, align 4, !tbaa !23
  %17 = load ptr, ptr %5, align 8, !tbaa !29
  %18 = load i32, ptr %17, align 4, !tbaa !23
  %19 = or i32 %18, %16
  store i32 %19, ptr %17, align 4, !tbaa !23
  store i64 9223372036854775807, ptr %3, align 8
  store i32 1, ptr %9, align 4
  br label %48

20:                                               ; preds = %2
  %21 = load ptr, ptr %4, align 8, !tbaa !7
  %22 = call i32 @mpd_isnegative(ptr noundef %21)
  store i32 %22, ptr %8, align 4, !tbaa !23
  %23 = load i64, ptr %7, align 8, !tbaa !3
  %24 = icmp ule i64 %23, 9223372036854775807
  br i1 %24, label %25, label %35

25:                                               ; preds = %20
  %26 = load i32, ptr %8, align 4, !tbaa !23
  %27 = icmp ne i32 %26, 0
  br i1 %27, label %28, label %31

28:                                               ; preds = %25
  %29 = load i64, ptr %7, align 8, !tbaa !3
  %30 = sub i64 0, %29
  br label %33

31:                                               ; preds = %25
  %32 = load i64, ptr %7, align 8, !tbaa !3
  br label %33

33:                                               ; preds = %31, %28
  %34 = phi i64 [ %30, %28 ], [ %32, %31 ]
  store i64 %34, ptr %3, align 8
  store i32 1, ptr %9, align 4
  br label %48

35:                                               ; preds = %20
  %36 = load i32, ptr %8, align 4, !tbaa !23
  %37 = icmp ne i32 %36, 0
  br i1 %37, label %38, label %43

38:                                               ; preds = %35
  %39 = load i64, ptr %7, align 8, !tbaa !3
  %40 = add i64 %39, -1
  %41 = icmp eq i64 %40, 9223372036854775807
  br i1 %41, label %42, label %43

42:                                               ; preds = %38
  store i64 -9223372036854775808, ptr %3, align 8
  store i32 1, ptr %9, align 4
  br label %48

43:                                               ; preds = %38, %35
  br label %44

44:                                               ; preds = %43
  %45 = load ptr, ptr %5, align 8, !tbaa !29
  %46 = load i32, ptr %45, align 4, !tbaa !23
  %47 = or i32 %46, 256
  store i32 %47, ptr %45, align 4, !tbaa !23
  store i64 9223372036854775807, ptr %3, align 8
  store i32 1, ptr %9, align 4
  br label %48

48:                                               ; preds = %44, %42, %33, %15
  call void @llvm.lifetime.end.p0(i64 4, ptr %8) #10
  call void @llvm.lifetime.end.p0(i64 8, ptr %7) #10
  call void @llvm.lifetime.end.p0(i64 4, ptr %6) #10
  %49 = load i64, ptr %3, align 8
  ret i64 %49
}

; Function Attrs: nounwind uwtable
define hidden i64 @mpd_qget_i64(ptr noundef %0, ptr noundef %1) #0 {
  %3 = alloca ptr, align 8
  %4 = alloca ptr, align 8
  store ptr %0, ptr %3, align 8, !tbaa !7
  store ptr %1, ptr %4, align 8, !tbaa !29
  %5 = load ptr, ptr %3, align 8, !tbaa !7
  %6 = load ptr, ptr %4, align 8, !tbaa !29
  %7 = call i64 @mpd_qget_ssize(ptr noundef %5, ptr noundef %6)
  ret i64 %7
}