; Function Attrs: nounwind uwtable
define hidden i64 @mpd_qget_i64(ptr noundef %0, ptr noundef captures(none) %1) local_unnamed_addr #10 {
  %3 = alloca i32, align 4
  call void @llvm.lifetime.start.p0(i64 4, ptr nonnull %3) #33
  store i32 0, ptr %3, align 4, !tbaa !23
  %4 = call fastcc i64 @_mpd_qget_uint(i32 noundef 0, ptr noundef %0, ptr noundef nonnull %3)
  %5 = load i32, ptr %3, align 4, !tbaa !23
  %6 = and i32 %5, 256
  %.not.i = icmp eq i32 %6, 0
  br i1 %.not.i, label %10, label %7

7:                                                ; preds = %2
  %8 = load i32, ptr %1, align 4, !tbaa !23
  %9 = or i32 %8, %5
  store i32 %9, ptr %1, align 4, !tbaa !23
  br label %mpd_qget_ssize.exit

10:                                               ; preds = %2
  %11 = load i8, ptr %0, align 8, !tbaa !19
  %12 = and i8 %11, 1
  %13 = icmp sgt i64 %4, -1
  br i1 %13, label %14, label %17

14:                                               ; preds = %10
  %.not12.i = icmp eq i8 %12, 0
  %15 = sub nsw i64 0, %4
  %16 = select i1 %.not12.i, i64 %4, i64 %15
  br label %mpd_qget_ssize.exit

17:                                               ; preds = %10
  %.not11.i = icmp ne i8 %12, 0
  %18 = icmp eq i64 %4, -9223372036854775808
  %or.cond.i = select i1 %.not11.i, i1 %18, i1 false
  br i1 %or.cond.i, label %mpd_qget_ssize.exit, label %19

19:                                               ; preds = %17
  %20 = load i32, ptr %1, align 4, !tbaa !23
  %21 = or i32 %20, 256
  store i32 %21, ptr %1, align 4, !tbaa !23
  br label %mpd_qget_ssize.exit

mpd_qget_ssize.exit:                              ; preds = %7, %14, %17, %19
  %.0.i = phi i64 [ 9223372036854775807, %7 ], [ %16, %14 ], [ 9223372036854775807, %19 ], [ -9223372036854775808, %17 ]
  call void @llvm.lifetime.end.p0(i64 4, ptr nonnull %3) #33
  ret i64 %.0.i
}